; ModuleID = '16/667.c'
source_filename = "16/667.c"
target datalayout = "e-m:e-p270:32:32-p271:32:32-p272:64:64-i64:64-f80:128-n8:16:32:64-S128"
target triple = "x86_64-pc-linux-gnu"

@.str = private unnamed_addr constant [3 x i8] c"%d\00", align 1
@.str.1 = private unnamed_addr constant [4 x i8] c"%d\0A\00", align 1
@.str.2 = private unnamed_addr constant [6 x i8] c"%d%d\0A\00", align 1
@.str.3 = private unnamed_addr constant [8 x i8] c"%d%d%d\0A\00", align 1
@.str.4 = private unnamed_addr constant [10 x i8] c"%d%d%d%d\0A\00", align 1
@.str.5 = private unnamed_addr constant [7 x i8] c"00001\0A\00", align 1

; Function Attrs: noinline nounwind uwtable
define dso_local i32 @main() #0 {
  %1 = alloca i32, align 4
  %2 = alloca i32, align 4
  %3 = alloca i32, align 4
  %4 = alloca i32, align 4
  %5 = alloca i32, align 4
  %6 = alloca i32, align 4
  %7 = alloca i32, align 4
  store i32 0, i32* %1, align 4
  %8 = call i32 (i8*, ...) @__isoc99_scanf(i8* getelementptr inbounds ([3 x i8], [3 x i8]* @.str, i64 0, i64 0), i32* %2)
  %9 = load i32, i32* %2, align 4
  %10 = icmp slt i32 %9, 10
  br i1 %10, label %11, label %14

11:                                               ; preds = %0
  %12 = load i32, i32* %2, align 4
  %13 = call i32 (i8*, ...) @printf(i8* getelementptr inbounds ([4 x i8], [4 x i8]* @.str.1, i64 0, i64 0), i32 %12)
  br label %14

14:                                               ; preds = %11, %0
  %15 = load i32, i32* %2, align 4
  %16 = icmp sge i32 %15, 10
  br i1 %16, label %17, label %30

17:                                               ; preds = %14
  %18 = load i32, i32* %2, align 4
  %19 = icmp slt i32 %18, 100
  br i1 %19, label %20, label %30

20:                                               ; preds = %17
  %21 = load i32, i32* %2, align 4
  %22 = srem i32 %21, 10
  store i32 %22, i32* %4, align 4
  %23 = load i32, i32* %2, align 4
  %24 = load i32, i32* %4, align 4
  %25 = sub nsw i32 %23, %24
  %26 = sdiv i32 %25, 10
  store i32 %26, i32* %5, align 4
  %27 = load i32, i32* %4, align 4
  %28 = load i32, i32* %5, align 4
  %29 = call i32 (i8*, ...) @printf(i8* getelementptr inbounds ([6 x i8], [6 x i8]* @.str.2, i64 0, i64 0), i32 %27, i32 %28)
  br label %30

30:                                               ; preds = %20, %17, %14
  %31 = load i32, i32* %2, align 4
  %32 = icmp sge i32 %31, 100
  br i1 %32, label %33, label %55

33:                                               ; preds = %30
  %34 = load i32, i32* %2, align 4
  %35 = icmp slt i32 %34, 1000
  br i1 %35, label %36, label %55

36:                                               ; preds = %33
  %37 = load i32, i32* %2, align 4
  %38 = srem i32 %37, 10
  store i32 %38, i32* %4, align 4
  %39 = load i32, i32* %2, align 4
  %40 = load i32, i32* %4, align 4
  %41 = sub nsw i32 %39, %40
  %42 = sdiv i32 %41, 10
  %43 = srem i32 %42, 10
  store i32 %43, i32* %5, align 4
  %44 = load i32, i32* %2, align 4
  %45 = load i32, i32* %5, align 4
  %46 = mul nsw i32 %45, 10
  %47 = sub nsw i32 %44, %46
  %48 = load i32, i32* %4, align 4
  %49 = sub nsw i32 %47, %48
  %50 = sdiv i32 %49, 100
  store i32 %50, i32* %6, align 4
  %51 = load i32, i32* %4, align 4
  %52 = load i32, i32* %5, align 4
  %53 = load i32, i32* %6, align 4
  %54 = call i32 (i8*, ...) @printf(i8* getelementptr inbounds ([8 x i8], [8 x i8]* @.str.3, i64 0, i64 0), i32 %51, i32 %52, i32 %53)
  br label %55

55:                                               ; preds = %36, %33, %30
  %56 = load i32, i32* %2, align 4
  %57 = icmp sge i32 %56, 1000
  br i1 %57, label %58, label %92

58:                                               ; preds = %55
  %59 = load i32, i32* %2, align 4
  %60 = icmp slt i32 %59, 10000
  br i1 %60, label %61, label %92

61:                                               ; preds = %58
  %62 = load i32, i32* %2, align 4
  %63 = srem i32 %62, 10
  store i32 %63, i32* %4, align 4
  %64 = load i32, i32* %2, align 4
  %65 = load i32, i32* %4, align 4
  %66 = sub nsw i32 %64, %65
  %67 = sdiv i32 %66, 10
  %68 = srem i32 %67, 10
  store i32 %68, i32* %5, align 4
  %69 = load i32, i32* %2, align 4
  %70 = load i32, i32* %5, align 4
  %71 = mul nsw i32 %70, 10
  %72 = sub nsw i32 %69, %71
  %73 = load i32, i32* %4, align 4
  %74 = sub nsw i32 %72, %73
  %75 = sdiv i32 %74, 100
  %76 = srem i32 %75, 10
  store i32 %76, i32* %6, align 4
  %77 = load i32, i32* %2, align 4
  %78 = load i32, i32* %6, align 4
  %79 = mul nsw i32 %78, 100
  %80 = sub nsw i32 %77, %79
  %81 = load i32, i32* %5, align 4
  %82 = mul nsw i32 %81, 10
  %83 = sub nsw i32 %80, %82
  %84 = load i32, i32* %4, align 4
  %85 = sub nsw i32 %83, %84
  %86 = sdiv i32 %85, 1000
  store i32 %86, i32* %7, align 4
  %87 = load i32, i32* %4, align 4
  %88 = load i32, i32* %5, align 4
  %89 = load i32, i32* %6, align 4
  %90 = load i32, i32* %7, align 4
  %91 = call i32 (i8*, ...) @printf(i8* getelementptr inbounds ([10 x i8], [10 x i8]* @.str.4, i64 0, i64 0), i32 %87, i32 %88, i32 %89, i32 %90)
  br label %92

92:                                               ; preds = %61, %58, %55
  %93 = load i32, i32* %2, align 4
  %94 = icmp eq i32 %93, 10000
  br i1 %94, label %95, label %97

95:                                               ; preds = %92
  %96 = call i32 (i8*, ...) @printf(i8* getelementptr inbounds ([7 x i8], [7 x i8]* @.str.5, i64 0, i64 0))
  br label %97

97:                                               ; preds = %95, %92
  ret i32 0
}

declare dso_local i32 @__isoc99_scanf(i8*, ...) #1

declare dso_local i32 @printf(i8*, ...) #1


!llvm.module.flags = !{!0}
!llvm.ident = !{!1}

!0 = !{i32 1, !"wchar_size", i32 4}
!1 = !{!"clang version 10.0.0-4ubuntu1 "}
